; ModuleID = 'source-C-CXX/36/1234.c'
source_filename = "source-C-CXX/36/1234.c"
target datalayout = "e-m:e-p270:32:32-p271:32:32-p272:64:64-i64:64-f80:128-n8:16:32:64-S128"
target triple = "x86_64-pc-linux-gnu"

@.str = private unnamed_addr constant [3 x i8] c"%d\00", align 1
@.str.1 = private unnamed_addr constant [3 x i8] c"%s\00", align 1
@.str.2 = private unnamed_addr constant [4 x i8] c"%c\0A\00", align 1
@str = private unnamed_addr constant [3 x i8] c"no\00", align 1

; Function Attrs: nofree nounwind sspstrong uwtable
define dso_local i32 @main() local_unnamed_addr #0 {
  %1 = alloca i32, align 4
  %2 = alloca [100000 x i8], align 16
  %3 = bitcast i32* %1 to i8*
  call void @llvm.lifetime.start.p0i8(i64 4, i8* nonnull %3) #4
  %4 = call i32 (i8*, ...) @__isoc99_scanf(i8* getelementptr inbounds ([3 x i8], [3 x i8]* @.str, i64 0, i64 0), i32* nonnull %1)
  %5 = getelementptr inbounds [100000 x i8], [100000 x i8]* %2, i64 0, i64 0
  call void @llvm.lifetime.start.p0i8(i64 100000, i8* nonnull %5) #4
  %6 = load i32, i32* %1, align 4, !tbaa !5
  %7 = icmp sgt i32 %6, 0
  br i1 %7, label %8, label %45

8:                                                ; preds = %0, %40
  %9 = phi i32 [ %41, %40 ], [ undef, %0 ]
  %10 = phi i32 [ %42, %40 ], [ 0, %0 ]
  %11 = call i32 (i8*, ...) @__isoc99_scanf(i8* getelementptr inbounds ([3 x i8], [3 x i8]* @.str.1, i64 0, i64 0), [100000 x i8]* nonnull %2)
  %12 = load i8, i8* %5, align 16
  %13 = icmp eq i8 %12, 0
  br i1 %13, label %36, label %14

14:                                               ; preds = %8, %31
  %15 = phi i64 [ %32, %31 ], [ 0, %8 ]
  %16 = phi i8 [ %34, %31 ], [ %12, %8 ]
  br label %21

17:                                               ; preds = %21
  %18 = getelementptr inbounds [100000 x i8], [100000 x i8]* %2, i64 0, i64 %27
  %19 = load i8, i8* %18, align 1, !tbaa !9
  %20 = icmp eq i8 %19, 0
  br i1 %20, label %28, label %21, !llvm.loop !10

21:                                               ; preds = %14, %17
  %22 = phi i64 [ 0, %14 ], [ %27, %17 ]
  %23 = phi i8 [ %12, %14 ], [ %19, %17 ]
  %24 = icmp ne i64 %15, %22
  %25 = icmp eq i8 %16, %23
  %26 = select i1 %24, i1 %25, i1 false
  %27 = add nuw i64 %22, 1
  br i1 %26, label %31, label %17

28:                                               ; preds = %17
  %29 = sext i8 %16 to i32
  %30 = call i32 (i8*, ...) @printf(i8* nonnull dereferenceable(1) getelementptr inbounds ([4 x i8], [4 x i8]* @.str.2, i64 0, i64 0), i32 %29)
  br label %40

31:                                               ; preds = %21
  %32 = add nuw i64 %15, 1
  %33 = getelementptr inbounds [100000 x i8], [100000 x i8]* %2, i64 0, i64 %32
  %34 = load i8, i8* %33, align 1, !tbaa !9
  %35 = icmp eq i8 %34, 0
  br i1 %35, label %38, label %14, !llvm.loop !12

36:                                               ; preds = %8
  %37 = icmp eq i32 %9, 0
  br i1 %37, label %38, label %40

38:                                               ; preds = %31, %36
  %39 = call i32 @puts(i8* nonnull dereferenceable(1) getelementptr inbounds ([3 x i8], [3 x i8]* @str, i64 0, i64 0))
  br label %40

40:                                               ; preds = %28, %36, %38
  %41 = phi i32 [ 1, %28 ], [ %9, %36 ], [ 0, %38 ]
  %42 = add nuw nsw i32 %10, 1
  %43 = load i32, i32* %1, align 4, !tbaa !5
  %44 = icmp slt i32 %42, %43
  br i1 %44, label %8, label %45, !llvm.loop !13

45:                                               ; preds = %40, %0
  call void @llvm.lifetime.end.p0i8(i64 100000, i8* nonnull %5) #4
  call void @llvm.lifetime.end.p0i8(i64 4, i8* nonnull %3) #4
  ret i32 0
}

; Function Attrs: argmemonly mustprogress nofree nosync nounwind willreturn
declare void @llvm.lifetime.start.p0i8(i64 immarg, i8* nocapture) #1

; Function Attrs: nofree nounwind
declare noundef i32 @__isoc99_scanf(i8* nocapture noundef readonly, ...) local_unnamed_addr #2

; Function Attrs: nofree nounwind
declare noundef i32 @printf(i8* nocapture noundef readonly, ...) local_unnamed_addr #2

; Function Attrs: argmemonly mustprogress nofree nosync nounwind willreturn
declare void @llvm.lifetime.end.p0i8(i64 immarg, i8* nocapture) #1

; Function Attrs: nofree nounwind
declare noundef i32 @puts(i8* nocapture noundef readonly) local_unnamed_addr #3


!llvm.module.flags = !{!0, !1, !2, !3}
!llvm.ident = !{!4}

!0 = !{i32 1, !"wchar_size", i32 4}
!1 = !{i32 7, !"PIC Level", i32 2}
!2 = !{i32 7, !"PIE Level", i32 2}
!3 = !{i32 7, !"uwtable", i32 1}
!4 = !{!"clang version 13.0.0"}
!5 = !{!6, !6, i64 0}
!6 = !{!"int", !7, i64 0}
!7 = !{!"omnipotent char", !8, i64 0}
!8 = !{!"Simple C/C++ TBAA"}
!9 = !{!7, !7, i64 0}
!10 = distinct !{!10, !11}
!11 = !{!"llvm.loop.mustprogress"}
!12 = distinct !{!12, !11}
!13 = distinct !{!13, !11}
